target datalayout = "e-m:e-p270:32:32-p271:32:32-p272:64:64-i64:64-i128:128-f80:128-n8:16:32:64-S128"
target triple = "x86_64-pc-linux-gnu"

%"struct.Imf_3_4::TiledOutputFile::Data" = type <{ %"class.Imf_3_4::Header", i32, i8, [3 x i8], %"class.Imf_3_4::TileDescription", %"class.Imf_3_4::FrameBuffer", i64, i32, i32, i32, i32, i32, i32, i32, [4 x i8], ptr, ptr, %"class.Imf_3_4::TileOffsets", i32, [4 x i8], %"class.std::vector.11", i64, %"class.std::vector.16", i64, i64, %"class.std::map.21", %"struct.Imf_3_4::(anonymous namespace)::TileCoord", i32, [4 x i8] }>
%"class.Imf_3_4::Header" = type <{ %"class.std::map", i8, [7 x i8] }>
%"class.std::map" = type { %"class.std::_Rb_tree" }
%"class.std::_Rb_tree" = type { %"struct.std::_Rb_tree<Imf_3_4::Name, std::pair<const Imf_3_4::Name, Imf_3_4::Attribute *>, std::_Select1st<std::pair<const Imf_3_4::Name, Imf_3_4::Attribute *>>, std::less<Imf_3_4::Name>>::_Rb_tree_impl" }
%"struct.std::_Rb_tree<Imf_3_4::Name, std::pair<const Imf_3_4::Name, Imf_3_4::Attribute *>, std::_Select1st<std::pair<const Imf_3_4::Name, Imf_3_4::Attribute *>>, std::less<Imf_3_4::Name>>::_Rb_tree_impl" = type { [8 x i8], %"struct.std::_Rb_tree_header" }
%"struct.std::_Rb_tree_header" = type { %"struct.std::_Rb_tree_node_base", i64 }
%"struct.std::_Rb_tree_node_base" = type { i32, ptr, ptr, ptr }
%"class.Imf_3_4::TileDescription" = type { i32, i32, i32, i32 }
%"class.Imf_3_4::FrameBuffer" = type { %"class.std::map.3" }
%"class.std::map.3" = type { %"class.std::_Rb_tree.4" }
%"class.std::_Rb_tree.4" = type { %"struct.std::_Rb_tree<Imf_3_4::Name, std::pair<const Imf_3_4::Name, Imf_3_4::Slice>, std::_Select1st<std::pair<const Imf_3_4::Name, Imf_3_4::Slice>>, std::less<Imf_3_4::Name>>::_Rb_tree_impl" }
%"struct.std::_Rb_tree<Imf_3_4::Name, std::pair<const Imf_3_4::Name, Imf_3_4::Slice>, std::_Select1st<std::pair<const Imf_3_4::Name, Imf_3_4::Slice>>, std::less<Imf_3_4::Name>>::_Rb_tree_impl" = type { [8 x i8], %"struct.std::_Rb_tree_header" }
%"class.Imf_3_4::TileOffsets" = type { i32, i32, i32, %"class.std::vector" }
%"class.std::vector" = type { %"struct.std::_Vector_base" }
%"struct.std::_Vector_base" = type { %"struct.std::_Vector_base<std::vector<std::vector<unsigned long>>, std::allocator<std::vector<std::vector<unsigned long>>>>::_Vector_impl" }
%"struct.std::_Vector_base<std::vector<std::vector<unsigned long>>, std::allocator<std::vector<std::vector<unsigned long>>>>::_Vector_impl" = type { %"struct.std::_Vector_base<std::vector<std::vector<unsigned long>>, std::allocator<std::vector<std::vector<unsigned long>>>>::_Vector_impl_data" }
%"struct.std::_Vector_base<std::vector<std::vector<unsigned long>>, std::allocator<std::vector<std::vector<unsigned long>>>>::_Vector_impl_data" = type { ptr, ptr, ptr }
%"class.std::vector.11" = type { %"struct.std::_Vector_base.12" }
%"struct.std::_Vector_base.12" = type { %"struct.std::_Vector_base<Imf_3_4::(anonymous namespace)::TOutSliceInfo, std::allocator<Imf_3_4::(anonymous namespace)::TOutSliceInfo>>::_Vector_impl" }
%"struct.std::_Vector_base<Imf_3_4::(anonymous namespace)::TOutSliceInfo, std::allocator<Imf_3_4::(anonymous namespace)::TOutSliceInfo>>::_Vector_impl" = type { %"struct.std::_Vector_base<Imf_3_4::(anonymous namespace)::TOutSliceInfo, std::allocator<Imf_3_4::(anonymous namespace)::TOutSliceInfo>>::_Vector_impl_data" }
%"struct.std::_Vector_base<Imf_3_4::(anonymous namespace)::TOutSliceInfo, std::allocator<Imf_3_4::(anonymous namespace)::TOutSliceInfo>>::_Vector_impl_data" = type { ptr, ptr, ptr }
%"class.std::vector.16" = type { %"struct.std::_Vector_base.17" }
%"struct.std::_Vector_base.17" = type { %"struct.std::_Vector_base<Imf_3_4::(anonymous namespace)::TileBuffer *, std::allocator<Imf_3_4::(anonymous namespace)::TileBuffer *>>::_Vector_impl" }
%"struct.std::_Vector_base<Imf_3_4::(anonymous namespace)::TileBuffer *, std::allocator<Imf_3_4::(anonymous namespace)::TileBuffer *>>::_Vector_impl" = type { %"struct.std::_Vector_base<Imf_3_4::(anonymous namespace)::TileBuffer *, std::allocator<Imf_3_4::(anonymous namespace)::TileBuffer *>>::_Vector_impl_data" }
%"struct.std::_Vector_base<Imf_3_4::(anonymous namespace)::TileBuffer *, std::allocator<Imf_3_4::(anonymous namespace)::TileBuffer *>>::_Vector_impl_data" = type { ptr, ptr, ptr }
%"class.std::map.21" = type { %"class.std::_Rb_tree.22" }
%"class.std::_Rb_tree.22" = type { %"struct.std::_Rb_tree<Imf_3_4::(anonymous namespace)::TileCoord, std::pair<const Imf_3_4::(anonymous namespace)::TileCoord, Imf_3_4::(anonymous namespace)::BufferedTile *>, std::_Select1st<std::pair<const Imf_3_4::(anonymous namespace)::TileCoord, Imf_3_4::(anonymous namespace)::BufferedTile *>>, std::less<Imf_3_4::(anonymous namespace)::TileCoord>>::_Rb_tree_impl" }
%"struct.std::_Rb_tree<Imf_3_4::(anonymous namespace)::TileCoord, std::pair<const Imf_3_4::(anonymous namespace)::TileCoord, Imf_3_4::(anonymous namespace)::BufferedTile *>, std::_Select1st<std::pair<const Imf_3_4::(anonymous namespace)::TileCoord, Imf_3_4::(anonymous namespace)::BufferedTile *>>, std::less<Imf_3_4::(anonymous namespace)::TileCoord>>::_Rb_tree_impl" = type { [8 x i8], %"struct.std::_Rb_tree_header" }
%"struct.Imf_3_4::(anonymous namespace)::TileCoord" = type { i32, i32, i32, i32 }
%"class.Imf_3_4::TiledOutputFile" = type <{ %"class.Imf_3_4::GenericOutputFile", ptr, ptr, i8, [7 x i8] }>
%"class.Imf_3_4::GenericOutputFile" = type { ptr }

; Function Attrs: mustprogress nounwind uwtable
define hidden noundef zeroext i1 @_ZNK7Imf_3_415TiledOutputFile11isValidTileEiiii(ptr noundef nonnull align 8 dereferenceable(25) %0, i32 noundef %1, i32 noundef %2, i32 noundef %3, i32 noundef %4) #5 align 2 {
  %6 = alloca ptr, align 8
  %7 = alloca i32, align 4
  %8 = alloca i32, align 4
  %9 = alloca i32, align 4
  %10 = alloca i32, align 4
  store ptr %0, ptr %6, align 8, !tbaa !128
  store i32 %1, ptr %7, align 4, !tbaa !14
  store i32 %2, ptr %8, align 4, !tbaa !14
  store i32 %3, ptr %9, align 4, !tbaa !14
  store i32 %4, ptr %10, align 4, !tbaa !14
  %11 = load ptr, ptr %6, align 8
  %12 = load i32, ptr %9, align 4, !tbaa !14
  %13 = getelementptr inbounds nuw %"class.Imf_3_4::TiledOutputFile", ptr %11, i32 0, i32 1
  %14 = load ptr, ptr %13, align 8, !tbaa !132
  %15 = getelementptr inbounds nuw %"struct.Imf_3_4::TiledOutputFile::Data", ptr %14, i32 0, i32 12
  %16 = load i32, ptr %15, align 4, !tbaa !173
  %17 = icmp slt i32 %12, %16
  br i1 %17, label %18, label %61

18:                                               ; preds = %5
  %19 = load i32, ptr %9, align 4, !tbaa !14
  %20 = icmp sge i32 %19, 0
  br i1 %20, label %21, label %61

21:                                               ; preds = %18
  %22 = load i32, ptr %10, align 4, !tbaa !14
  %23 = getelementptr inbounds nuw %"class.Imf_3_4::TiledOutputFile", ptr %11, i32 0, i32 1
  %24 = load ptr, ptr %23, align 8, !tbaa !132
  %25 = getelementptr inbounds nuw %"struct.Imf_3_4::TiledOutputFile::Data", ptr %24, i32 0, i32 13
  %26 = load i32, ptr %25, align 8, !tbaa !174
  %27 = icmp slt i32 %22, %26
  br i1 %27, label %28, label %61

28:                                               ; preds = %21
  %29 = load i32, ptr %10, align 4, !tbaa !14
  %30 = icmp sge i32 %29, 0
  br i1 %30, label %31, label %61

31:                                               ; preds = %28
  %32 = load i32, ptr %7, align 4, !tbaa !14
  %33 = getelementptr inbounds nuw %"class.Imf_3_4::TiledOutputFile", ptr %11, i32 0, i32 1
  %34 = load ptr, ptr %33, align 8, !tbaa !132
  %35 = getelementptr inbounds nuw %"struct.Imf_3_4::TiledOutputFile::Data", ptr %34, i32 0, i32 15
  %36 = load ptr, ptr %35, align 8, !tbaa !63
  %37 = load i32, ptr %9, align 4, !tbaa !14
  %38 = sext i32 %37 to i64
  %39 = getelementptr inbounds i32, ptr %36, i64 %38
  %40 = load i32, ptr %39, align 4, !tbaa !14
  %41 = icmp slt i32 %32, %40
  br i1 %41, label %42, label %61

42:                                               ; preds = %31
  %43 = load i32, ptr %7, align 4, !tbaa !14
  %44 = icmp sge i32 %43, 0
  br i1 %44, label %45, label %61

45:                                               ; preds = %42
  %46 = load i32, ptr %8, align 4, !tbaa !14
  %47 = getelementptr inbounds nuw %"class.Imf_3_4::TiledOutputFile", ptr %11, i32 0, i32 1
  %48 = load ptr, ptr %47, align 8, !tbaa !132
  %49 = getelementptr inbounds nuw %"struct.Imf_3_4::TiledOutputFile::Data", ptr %48, i32 0, i32 16
  %50 = load ptr, ptr %49, align 8, !tbaa !64
  %51 = load i32, ptr %10, align 4, !tbaa !14
  %52 = sext i32 %51 to i64
  %53 = getelementptr inbounds i32, ptr %50, i64 %52
  %54 = load i32, ptr %53, align 4, !tbaa !14
  %55 = icmp slt i32 %46, %54
  br i1 %55, label %56, label %59

56:                                               ; preds = %45
  %57 = load i32, ptr %8, align 4, !tbaa !14
  %58 = icmp sge i32 %57, 0
  br label %59

59:                                               ; preds = %56, %45
  %60 = phi i1 [ false, %45 ], [ %58, %56 ]
  br label %61

61:                                               ; preds = %59, %42, %31, %28, %21, %18, %5
  %62 = phi i1 [ false, %42 ], [ false, %31 ], [ false, %28 ], [ false, %21 ], [ false, %18 ], [ false, %5 ], [ %60, %59 ]
  ret i1 %62
}